(dp0
VappName
p1
V\u6cb3\u72f8\u5bb6
p2
sVpackageName
p3
Vcn.zhimawu
p4
sVappVersion
p5
V4.21.0
p6
sVsum
p7
I1
sVpass
p8
I1
sVfail
p9
I0
sVtestDate
p10
V2019-05-29 21:39:09
p11
sVtestSumDate
p12
V23\u79d2
p13
s.